; Function Attrs: nounwind uwtable
define dso_local i64 @read_in_full(i32 noundef %0, ptr noundef captures(none) %1, i64 noundef %2) local_unnamed_addr #0 {
  %4 = alloca %struct.pollfd, align 4
  %.not30 = icmp eq i64 %2, 0
  br i1 %.not30, label %.thread, label %.lr.ph

.lr.ph:                                           ; preds = %3
  %5 = getelementptr inbounds nuw i8, ptr %4, i64 4
  br label %6

6:                                                ; preds = %.lr.ph, %18
  %.01733 = phi i64 [ 0, %.lr.ph ], [ %21, %18 ]
  %.01932 = phi ptr [ %1, %.lr.ph ], [ %20, %18 ]
  %.02131 = phi i64 [ %2, %.lr.ph ], [ %19, %18 ]
  %spec.store.select.i = call i64 @llvm.umin.i64(i64 %.02131, i64 8388608)
  %7 = call i64 @read(i32 noundef %0, ptr noundef %.01932, i64 noundef %spec.store.select.i) #20
  %8 = icmp slt i64 %7, 0
  br i1 %8, label %.lr.ph.i, label %.loopexit

.lr.ph.i:                                         ; preds = %6
  %9 = tail call ptr @__errno_location() #26
  br label %10

10:                                               ; preds = %.backedge.i, %.lr.ph.i
  %11 = load i32, ptr %9, align 4, !tbaa !9
  %12 = icmp eq i32 %11, 4
  br i1 %12, label %.backedge.i, label %15

.backedge.i:                                      ; preds = %handle_nonblock.exit.i, %10
  %13 = call i64 @read(i32 noundef %0, ptr noundef %.01932, i64 noundef %spec.store.select.i) #20
  %14 = icmp slt i64 %13, 0
  br i1 %14, label %10, label %.loopexit

15:                                               ; preds = %10
  call void @llvm.lifetime.start.p0(i64 8, ptr nonnull %4) #20
  %.not.i.i = icmp eq i32 %11, 11
  br i1 %.not.i.i, label %handle_nonblock.exit.i, label %xread.exit

handle_nonblock.exit.i:                           ; preds = %15
  store i32 %0, ptr %4, align 4, !tbaa !11
  store i16 1, ptr %5, align 4, !tbaa !14
  %16 = call i32 @poll(ptr noundef nonnull %4, i64 noundef 1, i32 noundef -1) #20
  call void @llvm.lifetime.end.p0(i64 8, ptr nonnull %4) #20
  br label %.backedge.i

xread.exit:                                       ; preds = %15
  call void @llvm.lifetime.end.p0(i64 8, ptr nonnull %4) #20
  br label %.thread

.loopexit:                                        ; preds = %.backedge.i, %6
  %.ph = phi i64 [ %7, %6 ], [ %13, %.backedge.i ]
  %17 = icmp eq i64 %.ph, 0
  br i1 %17, label %.thread, label %18

18:                                               ; preds = %.loopexit
  %19 = sub i64 %.02131, %.ph
  %20 = getelementptr inbounds nuw i8, ptr %.01932, i64 %.ph
  %21 = add nuw nsw i64 %.ph, %.01733
  %.not = icmp eq i64 %19, 0
  br i1 %.not, label %.thread, label %6, !llvm.loop !15

.thread:                                          ; preds = %18, %.loopexit, %3, %xread.exit
  %.2 = phi i64 [ -1, %xread.exit ], [ 0, %3 ], [ %21, %18 ], [ %.01733, %.loopexit ]
  ret i64 %.2
}